target datalayout = "e-m:e-p270:32:32-p271:32:32-p272:64:64-i64:64-i128:128-f80:128-n8:16:32:64-S128"
target triple = "x86_64-pc-linux-gnu"

%struct.CPUClass = type { %struct.DeviceClass, ptr, ptr, ptr, ptr, ptr, ptr, ptr, ptr, ptr, ptr, ptr, ptr, ptr, ptr, ptr, ptr, ptr, ptr, ptr, ptr, ptr, i32, i32, i8 }
%struct.DeviceClass = type { %struct.ObjectClass, [1 x i64], ptr, ptr, ptr, i16, i8, i8, ptr, ptr, ptr, ptr, ptr, ptr }
%struct.ObjectClass = type { ptr, ptr, [4 x ptr], [4 x ptr], ptr, ptr }

@.str = private unnamed_addr constant [29 x i8] c"../qemu/hw/core/cpu-common.c\00", align 1
@.str.1 = private unnamed_addr constant [18 x i8] c"cc->class_by_name\00", align 1
@__PRETTY_FUNCTION__.cpu_class_by_name = private unnamed_addr constant [59 x i8] c"ObjectClass *cpu_class_by_name(const char *, const char *)\00", align 1
@.str.2 = private unnamed_addr constant [10 x i8] c"cpu_model\00", align 1
@.str.3 = private unnamed_addr constant [4 x i8] c"cpu\00", align 1
@.str.4 = private unnamed_addr constant [100 x i8] c"/home/dtcxzyw/WorkSpace/Projects/compilers/llvm-opt-benchmark/bench/qemu/qemu/include/hw/core/cpu.h\00", align 1
@__func__.CPU_CLASS = private unnamed_addr constant [10 x i8] c"CPU_CLASS\00", align 1

; Function Attrs: inlinehint nounwind sspstrong uwtable
define internal ptr @CPU_CLASS(ptr noundef %0) #3 {
  %2 = alloca ptr, align 8
  store ptr %0, ptr %2, align 8
  %3 = load ptr, ptr %2, align 8
  %4 = call ptr @object_class_dynamic_cast_assert(ptr noundef %3, ptr noundef @.str.3, ptr noundef @.str.4, i32 noundef 67, ptr noundef @__func__.CPU_CLASS)
  ret ptr %4
}

; Function Attrs: nounwind sspstrong uwtable
define dso_local ptr @cpu_class_by_name(ptr noundef %0, ptr noundef %1) #0 {
  %3 = alloca ptr, align 8
  %4 = alloca ptr, align 8
  %5 = alloca ptr, align 8
  %6 = alloca ptr, align 8
  %7 = alloca ptr, align 8
  %8 = alloca i32, align 4
  store ptr %0, ptr %4, align 8
  store ptr %1, ptr %5, align 8
  call void @llvm.lifetime.start.p0(i64 8, ptr %6) #13
  store ptr null, ptr %6, align 8, !annotation !4
  call void @llvm.lifetime.start.p0(i64 8, ptr %7) #13
  store ptr null, ptr %7, align 8, !annotation !4
  %9 = load ptr, ptr %4, align 8
  %10 = call ptr @object_class_by_name(ptr noundef %9)
  store ptr %10, ptr %6, align 8
  %11 = load ptr, ptr %6, align 8
  %12 = call ptr @CPU_CLASS(ptr noundef %11)
  store ptr %12, ptr %7, align 8
  %13 = load ptr, ptr %7, align 8
  %14 = getelementptr inbounds nuw %struct.CPUClass, ptr %13, i32 0, i32 1
  %15 = load ptr, ptr %14, align 8
  %16 = icmp ne ptr %15, null
  br i1 %16, label %17, label %18

17:                                               ; preds = %2
  br label %19

18:                                               ; preds = %2
  call void @__assert_fail(ptr noundef @.str.1, ptr noundef @.str, i32 noundef 154, ptr noundef @__PRETTY_FUNCTION__.cpu_class_by_name) #15
  unreachable

19:                                               ; preds = %17
  %20 = load ptr, ptr %5, align 8
  %21 = icmp ne ptr %20, null
  br i1 %21, label %22, label %23

22:                                               ; preds = %19
  br label %24

23:                                               ; preds = %19
  call void @__assert_fail(ptr noundef @.str.2, ptr noundef @.str, i32 noundef 155, ptr noundef @__PRETTY_FUNCTION__.cpu_class_by_name) #15
  unreachable

24:                                               ; preds = %22
  %25 = load ptr, ptr %7, align 8
  %26 = getelementptr inbounds nuw %struct.CPUClass, ptr %25, i32 0, i32 1
  %27 = load ptr, ptr %26, align 8
  %28 = load ptr, ptr %5, align 8
  %29 = call ptr %27(ptr noundef %28)
  store ptr %29, ptr %6, align 8
  %30 = load ptr, ptr %6, align 8
  %31 = load ptr, ptr %4, align 8
  %32 = call ptr @object_class_dynamic_cast(ptr noundef %30, ptr noundef %31)
  %33 = icmp ne ptr %32, null
  br i1 %33, label %34, label %39

34:                                               ; preds = %24
  %35 = load ptr, ptr %6, align 8
  %36 = call zeroext i1 @object_class_is_abstract(ptr noundef %35)
  br i1 %36, label %39, label %37

37:                                               ; preds = %34
  %38 = load ptr, ptr %6, align 8
  store ptr %38, ptr %3, align 8
  store i32 1, ptr %8, align 4
  br label %40

39:                                               ; preds = %34, %24
  store ptr null, ptr %3, align 8
  store i32 1, ptr %8, align 4
  br label %40

40:                                               ; preds = %39, %37
  call void @llvm.lifetime.end.p0(i64 8, ptr %7) #13
  call void @llvm.lifetime.end.p0(i64 8, ptr %6) #13
  %41 = load ptr, ptr %3, align 8
  ret ptr %41
}