; Function Attrs: nounwind sspstrong uwtable
define dso_local noundef ptr @cpu_class_by_name(ptr noundef %0, ptr noundef %1) local_unnamed_addr #0 {
  %3 = tail call ptr @object_class_by_name(ptr noundef %0) #12
  %4 = tail call ptr @object_class_dynamic_cast_assert(ptr noundef %3, ptr noundef nonnull @.str.3, ptr noundef nonnull @.str.4, i32 noundef 67, ptr noundef nonnull @__func__.CPU_CLASS) #12
  %5 = getelementptr inbounds nuw i8, ptr %4, i64 184
  %6 = load ptr, ptr %5, align 8
  %.not = icmp eq ptr %6, null
  br i1 %.not, label %7, label %8

7:                                                ; preds = %2
  tail call void @__assert_fail(ptr noundef nonnull @.str.1, ptr noundef nonnull @.str, i32 noundef 154, ptr noundef nonnull @__PRETTY_FUNCTION__.cpu_class_by_name) #14
  unreachable

8:                                                ; preds = %2
  %.not13 = icmp eq ptr %1, null
  br i1 %.not13, label %9, label %10

9:                                                ; preds = %8
  tail call void @__assert_fail(ptr noundef nonnull @.str.2, ptr noundef nonnull @.str, i32 noundef 155, ptr noundef nonnull @__PRETTY_FUNCTION__.cpu_class_by_name) #14
  unreachable

10:                                               ; preds = %8
  %11 = tail call ptr %6(ptr noundef nonnull %1) #12
  %12 = tail call ptr @object_class_dynamic_cast(ptr noundef %11, ptr noundef %0) #12
  %.not14 = icmp eq ptr %12, null
  br i1 %.not14, label %15, label %13

13:                                               ; preds = %10
  %14 = tail call zeroext i1 @object_class_is_abstract(ptr noundef %11) #12
  br i1 %14, label %15, label %16

15:                                               ; preds = %13, %10
  br label %16

16:                                               ; preds = %13, %15
  %.0 = phi ptr [ null, %15 ], [ %11, %13 ]
  ret ptr %.0
}